target datalayout = "e-m:e-p270:32:32-p271:32:32-p272:64:64-i64:64-i128:128-f80:128-n8:16:32:64-S128"
target triple = "x86_64-pc-linux-gnu"

%struct.darktable_t = type { %struct.dt_codepath_t, i32, i32, ptr, ptr, ptr, ptr, ptr, ptr, ptr, ptr, ptr, ptr, ptr, ptr, ptr, ptr, ptr, ptr, ptr, ptr, ptr, ptr, ptr, ptr, ptr, ptr, ptr, ptr, ptr, [64 x %struct.dt_pthread_mutex_t], %struct.dt_pthread_mutex_t, %struct.dt_pthread_mutex_t, %struct.dt_pthread_mutex_t, %struct.dt_pthread_mutex_t, %struct.dt_pthread_mutex_t, ptr, ptr, ptr, ptr, ptr, ptr, ptr, ptr, ptr, ptr, ptr, ptr, ptr, %struct.dt_lua_state_t, ptr, double, ptr, i32, [47 x i32], i32, i32, ptr, ptr, %struct.dt_sys_resources_t, %struct.dt_backthumb_t, %struct.dt_gimp_t }
%struct.dt_codepath_t = type { i8, [3 x i8] }
%struct.dt_pthread_mutex_t = type { %union.pthread_mutex_t }
%union.pthread_mutex_t = type { %struct.__pthread_mutex_s }
%struct.__pthread_mutex_s = type { i32, i32, i32, i32, i32, i16, i16, %struct.__pthread_internal_list }
%struct.__pthread_internal_list = type { ptr, ptr }
%struct.dt_lua_state_t = type { i32 }
%struct.dt_sys_resources_t = type { i64, i64, ptr, ptr, i32 }
%struct.dt_backthumb_t = type { double, double, i32, i32, i32, i32 }
%struct.dt_gimp_t = type { i32, ptr, ptr, i32, i32 }
%struct.dt_import_metadata_t = type { ptr, ptr, ptr, ptr, ptr }
%struct._GtkTreeIter = type { i32, ptr, ptr, ptr }

@darktable = external global %struct.darktable_t, align 8
@.str.18 = private unnamed_addr constant [123 x i8] c"generated/home/dtcxzyw/WorkSpace/Projects/compilers/llvm-opt-benchmark/bench/darktable/darktable/src/gui/import_metadata.c\00", align 1
@.str.25 = private unnamed_addr constant [41 x i8] c"[sql] %s:%d, function %s(): prepare \22%s\22\00", align 1
@stderr = external global ptr, align 8
@.str.27 = private unnamed_addr constant [53 x i8] c"sqlite3 error: %s:%d, function %s(), query \22%s\22: %s\0A\00", align 1
@__FUNCTION__._import_tags_presets_update = private unnamed_addr constant [28 x i8] c"_import_tags_presets_update\00", align 1
@.str.28 = private unnamed_addr constant [109 x i8] c"SELECT name, op_params FROM data.presets WHERE operation = 'tagging' ORDER BY writeprotect DESC, LOWER(name)\00", align 1
@.str.29 = private unnamed_addr constant [2 x i8] c",\00", align 1
@.str.30 = private unnamed_addr constant [4 x i8] c"%s,\00", align 1

; Function Attrs: nounwind uwtable
define internal void @_import_tags_presets_update(ptr noundef %0) #0 {
  %2 = alloca ptr, align 8
  %3 = alloca %struct._GtkTreeIter, align 8
  %4 = alloca ptr, align 8
  %5 = alloca i32, align 4
  %6 = alloca ptr, align 8
  %7 = alloca i32, align 4
  %8 = alloca ptr, align 8
  %9 = alloca ptr, align 8
  %10 = alloca ptr, align 8
  %11 = alloca i32, align 4
  %12 = alloca ptr, align 8
  store ptr %0, ptr %2, align 8, !tbaa !6
  %13 = load ptr, ptr %2, align 8, !tbaa !6
  %14 = getelementptr inbounds nuw %struct.dt_import_metadata_t, ptr %13, i32 0, i32 4
  %15 = load ptr, ptr %14, align 8, !tbaa !64
  call void @gtk_list_store_clear(ptr noundef %15)
  call void @llvm.lifetime.start.p0(i64 32, ptr %3) #7
  call void @llvm.lifetime.start.p0(i64 8, ptr %4) #7
  br label %16

16:                                               ; preds = %1
  br label %17

17:                                               ; preds = %16
  %18 = load i32, ptr getelementptr inbounds nuw (%struct.darktable_t, ptr @darktable, i32 0, i32 2), align 8, !tbaa !68
  %19 = and i32 256, %18
  %20 = icmp ne i32 %19, 0
  br i1 %20, label %21, label %27

21:                                               ; preds = %17
  %22 = load i32, ptr getelementptr inbounds nuw (%struct.darktable_t, ptr @darktable, i32 0, i32 2), align 8, !tbaa !68
  %23 = xor i32 %22, -1
  %24 = and i32 0, %23
  %25 = icmp ne i32 %24, 0
  br i1 %25, label %27, label %26

26:                                               ; preds = %21
  call void (ptr, ...) @dt_print_ext(ptr noundef @.str.25, ptr noundef @.str.18, i32 noundef 302, ptr noundef @__FUNCTION__._import_tags_presets_update, ptr noundef @.str.28)
  br label %27

27:                                               ; preds = %26, %21, %17
  br label %28

28:                                               ; preds = %27
  br label %29

29:                                               ; preds = %28
  call void @llvm.lifetime.start.p0(i64 4, ptr %5) #7
  %30 = load ptr, ptr getelementptr inbounds nuw (%struct.darktable_t, ptr @darktable, i32 0, i32 18), align 8, !tbaa !70
  %31 = call ptr @dt_database_get(ptr noundef %30)
  %32 = call i32 @sqlite3_prepare_v2(ptr noundef %31, ptr noundef @.str.28, i32 noundef -1, ptr noundef %4, ptr noundef null)
  store i32 %32, ptr %5, align 4, !tbaa !61
  %33 = load i32, ptr %5, align 4, !tbaa !61
  %34 = icmp ne i32 %33, 0
  br i1 %34, label %35, label %41

35:                                               ; preds = %29
  %36 = load ptr, ptr @stderr, align 8, !tbaa !71
  %37 = load ptr, ptr getelementptr inbounds nuw (%struct.darktable_t, ptr @darktable, i32 0, i32 18), align 8, !tbaa !70
  %38 = call ptr @dt_database_get(ptr noundef %37)
  %39 = call ptr @sqlite3_errmsg(ptr noundef %38)
  %40 = call i32 (ptr, ptr, ...) @fprintf(ptr noundef %36, ptr noundef @.str.27, ptr noundef @.str.18, i32 noundef 302, ptr noundef @__FUNCTION__._import_tags_presets_update, ptr noundef @.str.28, ptr noundef %39) #7
  br label %41

41:                                               ; preds = %35, %29
  call void @llvm.lifetime.end.p0(i64 4, ptr %5) #7
  br label %42

42:                                               ; preds = %41
  br label %43

43:                                               ; preds = %42
  br label %44

44:                                               ; preds = %99, %43
  %45 = load ptr, ptr %4, align 8, !tbaa !73
  %46 = call i32 @sqlite3_step(ptr noundef %45)
  %47 = icmp eq i32 %46, 100
  br i1 %47, label %48, label %100

48:                                               ; preds = %44
  call void @llvm.lifetime.start.p0(i64 8, ptr %6) #7
  %49 = load ptr, ptr %4, align 8, !tbaa !73
  %50 = call ptr @sqlite3_column_blob(ptr noundef %49, i32 noundef 1)
  store ptr %50, ptr %6, align 8, !tbaa !75
  call void @llvm.lifetime.start.p0(i64 4, ptr %7) #7
  %51 = load ptr, ptr %4, align 8, !tbaa !73
  %52 = call i32 @sqlite3_column_bytes(ptr noundef %51, i32 noundef 1)
  store i32 %52, ptr %7, align 4, !tbaa !61
  %53 = load i32, ptr %7, align 4, !tbaa !61
  %54 = icmp ne i32 %53, 0
  br i1 %54, label %55, label %99

55:                                               ; preds = %48
  call void @llvm.lifetime.start.p0(i64 8, ptr %8) #7
  store ptr null, ptr %8, align 8, !tbaa !65
  call void @llvm.lifetime.start.p0(i64 8, ptr %9) #7
  %56 = load ptr, ptr %6, align 8, !tbaa !75
  %57 = call ptr @g_strsplit(ptr noundef %56, ptr noundef @.str.29, i32 noundef 0)
  store ptr %57, ptr %9, align 8, !tbaa !76
  %58 = load ptr, ptr %9, align 8, !tbaa !76
  %59 = icmp ne ptr %58, null
  br i1 %59, label %60, label %98

60:                                               ; preds = %55
  call void @llvm.lifetime.start.p0(i64 8, ptr %10) #7
  %61 = load ptr, ptr %9, align 8, !tbaa !76
  store ptr %61, ptr %10, align 8, !tbaa !76
  br label %62

62:                                               ; preds = %66, %60
  %63 = load ptr, ptr %10, align 8, !tbaa !76
  %64 = load ptr, ptr %63, align 8, !tbaa !65
  %65 = icmp ne ptr %64, null
  br i1 %65, label %66, label %77

66:                                               ; preds = %62
  call void @llvm.lifetime.start.p0(i64 4, ptr %11) #7
  %67 = load ptr, ptr %10, align 8, !tbaa !76
  %68 = load ptr, ptr %67, align 8, !tbaa !65
  %69 = call i64 @strtoul(ptr noundef %68, ptr noundef null, i32 noundef 0) #7
  %70 = trunc i64 %69 to i32
  store i32 %70, ptr %11, align 4, !tbaa !61
  call void @llvm.lifetime.start.p0(i64 8, ptr %12) #7
  %71 = load i32, ptr %11, align 4, !tbaa !61
  %72 = call ptr @dt_tag_get_name(i32 noundef %71)
  store ptr %72, ptr %12, align 8, !tbaa !65
  %73 = load ptr, ptr %12, align 8, !tbaa !65
  call void (ptr, ptr, ...) @dt_util_str_cat(ptr noundef %8, ptr noundef @.str.30, ptr noundef %73)
  %74 = load ptr, ptr %12, align 8, !tbaa !65
  call void @g_free(ptr noundef %74)
  %75 = load ptr, ptr %10, align 8, !tbaa !76
  %76 = getelementptr inbounds nuw ptr, ptr %75, i32 1
  store ptr %76, ptr %10, align 8, !tbaa !76
  call void @llvm.lifetime.end.p0(i64 8, ptr %12) #7
  call void @llvm.lifetime.end.p0(i64 4, ptr %11) #7
  br label %62

77:                                               ; preds = %62
  %78 = load ptr, ptr %8, align 8, !tbaa !65
  %79 = icmp ne ptr %78, null
  br i1 %79, label %80, label %86

80:                                               ; preds = %77
  %81 = load ptr, ptr %8, align 8, !tbaa !65
  %82 = load ptr, ptr %8, align 8, !tbaa !65
  %83 = call i64 @strlen(ptr noundef %82) #9
  %84 = sub i64 %83, 1
  %85 = getelementptr inbounds nuw i8, ptr %81, i64 %84
  store i8 0, ptr %85, align 1, !tbaa !78
  br label %86

86:                                               ; preds = %80, %77
  %87 = load ptr, ptr %9, align 8, !tbaa !76
  call void @g_strfreev(ptr noundef %87)
  %88 = load ptr, ptr %2, align 8, !tbaa !6
  %89 = getelementptr inbounds nuw %struct.dt_import_metadata_t, ptr %88, i32 0, i32 4
  %90 = load ptr, ptr %89, align 8, !tbaa !64
  call void @gtk_list_store_append(ptr noundef %90, ptr noundef %3)
  %91 = load ptr, ptr %2, align 8, !tbaa !6
  %92 = getelementptr inbounds nuw %struct.dt_import_metadata_t, ptr %91, i32 0, i32 4
  %93 = load ptr, ptr %92, align 8, !tbaa !64
  %94 = load ptr, ptr %4, align 8, !tbaa !73
  %95 = call ptr @sqlite3_column_text(ptr noundef %94, i32 noundef 0)
  %96 = load ptr, ptr %8, align 8, !tbaa !65
  call void (ptr, ptr, ...) @gtk_list_store_set(ptr noundef %93, ptr noundef %3, i32 noundef 0, ptr noundef %95, i32 noundef 1, ptr noundef %96, i32 noundef -1)
  %97 = load ptr, ptr %8, align 8, !tbaa !65
  call void @g_free(ptr noundef %97)
  call void @llvm.lifetime.end.p0(i64 8, ptr %10) #7
  br label %98

98:                                               ; preds = %86, %55
  call void @llvm.lifetime.end.p0(i64 8, ptr %9) #7
  call void @llvm.lifetime.end.p0(i64 8, ptr %8) #7
  br label %99

99:                                               ; preds = %98, %48
  call void @llvm.lifetime.end.p0(i64 4, ptr %7) #7
  call void @llvm.lifetime.end.p0(i64 8, ptr %6) #7
  br label %44

100:                                              ; preds = %44
  %101 = load ptr, ptr %4, align 8, !tbaa !73
  %102 = call i32 @sqlite3_finalize(ptr noundef %101)
  call void @llvm.lifetime.end.p0(i64 8, ptr %4) #7
  call void @llvm.lifetime.end.p0(i64 32, ptr %3) #7
  ret void
}