; Function Attrs: nounwind uwtable
define internal fastcc void @_import_tags_presets_update(ptr noundef readonly captures(none) %0) unnamed_addr #0 {
  %2 = alloca %struct._GtkTreeIter, align 8
  %3 = alloca ptr, align 8
  %4 = alloca ptr, align 8
  %5 = getelementptr inbounds nuw i8, ptr %0, i64 32
  %6 = load ptr, ptr %5, align 8, !tbaa !59
  tail call void @gtk_list_store_clear(ptr noundef %6) #10
  call void @llvm.lifetime.start.p0(i64 32, ptr nonnull %2) #10
  call void @llvm.lifetime.start.p0(i64 8, ptr nonnull %3) #10
  %7 = load i32, ptr getelementptr inbounds nuw (i8, ptr @darktable, i64 8), align 8, !tbaa !63
  %8 = and i32 %7, 256
  %.not = icmp eq i32 %8, 0
  br i1 %.not, label %10, label %9

9:                                                ; preds = %1
  tail call void (ptr, ...) @dt_print_ext(ptr noundef nonnull @.str.25, ptr noundef nonnull @.str.18, i32 noundef 302, ptr noundef nonnull @__FUNCTION__._import_tags_presets_update, ptr noundef nonnull @.str.28) #10
  br label %10

10:                                               ; preds = %9, %1
  %11 = load ptr, ptr getelementptr inbounds nuw (i8, ptr @darktable, i64 136), align 8, !tbaa !65
  %12 = tail call ptr @dt_database_get(ptr noundef %11) #10
  %13 = call i32 @sqlite3_prepare_v2(ptr noundef %12, ptr noundef nonnull @.str.28, i32 noundef -1, ptr noundef nonnull %3, ptr noundef null) #10
  %.not17 = icmp eq i32 %13, 0
  br i1 %.not17, label %20, label %14

14:                                               ; preds = %10
  %15 = load ptr, ptr @stderr, align 8, !tbaa !66
  %16 = load ptr, ptr getelementptr inbounds nuw (i8, ptr @darktable, i64 136), align 8, !tbaa !65
  %17 = call ptr @dt_database_get(ptr noundef %16) #10
  %18 = call ptr @sqlite3_errmsg(ptr noundef %17) #10
  %19 = call i32 (ptr, ptr, ...) @fprintf(ptr noundef %15, ptr noundef nonnull @.str.27, ptr noundef nonnull @.str.18, i32 noundef 302, ptr noundef nonnull @__FUNCTION__._import_tags_presets_update, ptr noundef nonnull @.str.28, ptr noundef %18) #12
  br label %20

20:                                               ; preds = %14, %10
  %21 = load ptr, ptr %3, align 8, !tbaa !68
  %22 = call i32 @sqlite3_step(ptr noundef %21) #10
  %23 = icmp eq i32 %22, 100
  br i1 %23, label %.lr.ph25, label %._crit_edge26

.lr.ph25:                                         ; preds = %20, %50
  %24 = load ptr, ptr %3, align 8, !tbaa !68
  %25 = call ptr @sqlite3_column_blob(ptr noundef %24, i32 noundef 1) #10
  %26 = load ptr, ptr %3, align 8, !tbaa !68
  %27 = call i32 @sqlite3_column_bytes(ptr noundef %26, i32 noundef 1) #10
  %.not18 = icmp eq i32 %27, 0
  br i1 %.not18, label %50, label %28

28:                                               ; preds = %.lr.ph25
  call void @llvm.lifetime.start.p0(i64 8, ptr nonnull %4) #10
  store ptr null, ptr %4, align 8, !tbaa !70
  %29 = call ptr @g_strsplit(ptr noundef %25, ptr noundef nonnull @.str.29, i32 noundef 0) #10
  %.not19 = icmp eq ptr %29, null
  br i1 %.not19, label %49, label %.preheader

.preheader:                                       ; preds = %28
  %30 = load ptr, ptr %29, align 8, !tbaa !70
  %.not2022 = icmp eq ptr %30, null
  br i1 %.not2022, label %._crit_edge, label %.lr.ph

.lr.ph:                                           ; preds = %.preheader, %.lr.ph
  %31 = phi ptr [ %36, %.lr.ph ], [ %30, %.preheader ]
  %.023 = phi ptr [ %35, %.lr.ph ], [ %29, %.preheader ]
  %32 = call i64 @strtoul(ptr noundef nonnull captures(none) %31, ptr noundef null, i32 noundef 0) #10
  %33 = trunc i64 %32 to i32
  %34 = call ptr @dt_tag_get_name(i32 noundef %33) #10
  call void (ptr, ptr, ...) @dt_util_str_cat(ptr noundef nonnull %4, ptr noundef nonnull @.str.30, ptr noundef %34) #10
  call void @g_free(ptr noundef %34) #10
  %35 = getelementptr inbounds nuw i8, ptr %.023, i64 8
  %36 = load ptr, ptr %35, align 8, !tbaa !70
  %.not20 = icmp eq ptr %36, null
  br i1 %.not20, label %._crit_edge, label %.lr.ph

._crit_edge:                                      ; preds = %.lr.ph, %.preheader
  %37 = load ptr, ptr %4, align 8, !tbaa !70
  %.not21 = icmp eq ptr %37, null
  br i1 %.not21, label %42, label %38

38:                                               ; preds = %._crit_edge
  %39 = call i64 @strlen(ptr noundef nonnull dereferenceable(1) %37) #13
  %40 = getelementptr i8, ptr %37, i64 %39
  %41 = getelementptr i8, ptr %40, i64 -1
  store i8 0, ptr %41, align 1, !tbaa !71
  br label %42

42:                                               ; preds = %38, %._crit_edge
  call void @g_strfreev(ptr noundef nonnull %29) #10
  %43 = load ptr, ptr %5, align 8, !tbaa !59
  call void @gtk_list_store_append(ptr noundef %43, ptr noundef nonnull %2) #10
  %44 = load ptr, ptr %5, align 8, !tbaa !59
  %45 = load ptr, ptr %3, align 8, !tbaa !68
  %46 = call ptr @sqlite3_column_text(ptr noundef %45, i32 noundef 0) #10
  %47 = load ptr, ptr %4, align 8, !tbaa !70
  call void (ptr, ptr, ...) @gtk_list_store_set(ptr noundef %44, ptr noundef nonnull %2, i32 noundef 0, ptr noundef %46, i32 noundef 1, ptr noundef %47, i32 noundef -1) #10
  %48 = load ptr, ptr %4, align 8, !tbaa !70
  call void @g_free(ptr noundef %48) #10
  br label %49

49:                                               ; preds = %42, %28
  call void @llvm.lifetime.end.p0(i64 8, ptr nonnull %4) #10
  br label %50

50:                                               ; preds = %49, %.lr.ph25
  %51 = load ptr, ptr %3, align 8, !tbaa !68
  %52 = call i32 @sqlite3_step(ptr noundef %51) #10
  %53 = icmp eq i32 %52, 100
  br i1 %53, label %.lr.ph25, label %._crit_edge26

._crit_edge26:                                    ; preds = %50, %20
  %54 = load ptr, ptr %3, align 8, !tbaa !68
  %55 = call i32 @sqlite3_finalize(ptr noundef %54) #10
  call void @llvm.lifetime.end.p0(i64 8, ptr nonnull %3) #10
  call void @llvm.lifetime.end.p0(i64 32, ptr nonnull %2) #10
  ret void
}